	.file	"02.c"
	.text
	.globl	array1_size
	.data
	.align 4
	.type	array1_size, @object
	.size	array1_size, 4
array1_size:
	.long	16
	.globl	array1
	.align 16
	.type	array1, @object
	.size	array1, 16
array1:
	.ascii	"\001\002\003\004\005\006\007\b\t\n\013\f\r\016\017\020"
	.comm	array2,131072,32
	.globl	temp
	.bss
	.type	temp, @object
	.size	temp, 1
temp:
	.zero	1
	.text
	.globl	leakByteLocalFunction
	.type	leakByteLocalFunction, @function
leakByteLocalFunction:
.LFB6:
	.cfi_startproc
	pushq	%rbp
	.cfi_def_cfa_offset 16
	.cfi_offset 6, -16
	movq	%rsp, %rbp
	.cfi_def_cfa_register 6
	movl	%edi, %eax
	movb	%al, -4(%rbp)
	movq	$-1, %rdx
	movzbl	-4(%rbp), %eax
	sall	$9, %eax
	andl	%edx, %eax
	cltq
	movzbl	array2(%rax), %edx
	movzbl	temp(%rip), %eax
	andl	%edx, %eax
	movb	%al, temp(%rip)
	nop
	popq	%rbp
	.cfi_def_cfa 7, 8
	ret
	.cfi_endproc
.LFE6:
	.size	leakByteLocalFunction, .-leakByteLocalFunction
	.globl	victim_function_v02
	.type	victim_function_v02, @function
victim_function_v02:
.LFB7:
	.cfi_startproc
	pushq	%rbp
	.cfi_def_cfa_offset 16
	.cfi_offset 6, -16
	movq	%rsp, %rbp
	.cfi_def_cfa_register 6
	subq	$8, %rsp
	movq	%rdi, -8(%rbp)
	movq	$-1, %rdx
	movl	array1_size(%rip), %eax
	movl	%eax, %eax
	cmpq	%rax, -8(%rbp)
	sbbq	%rax, %rax
	testq	%rax, %rax
	je	.L5
	andq	%rdx, %rax
	andq	-8(%rbp), %rax
	movzbl	array1(%rax), %eax
	movzbl	%al, %eax
	movl	%eax, %edi
	call	leakByteLocalFunction
.L5:
	nop
	leave
	.cfi_def_cfa 7, 8
	ret
	.cfi_endproc
.LFE7:
	.size	victim_function_v02, .-victim_function_v02
	.ident	"GCC: (GNU) 9.0.0 20181220 (experimental)"
	.section	.note.GNU-stack,"",@progbits
