	.text
	.file	"19.c"
	.globl	victim_function_v19     # -- Begin function victim_function_v19
	.p2align	4, 0x90
	.type	victim_function_v19,@function
victim_function_v19:                    # @victim_function_v19
	.cfi_startproc
# %bb.0:
	pushq	%rbp
	.cfi_def_cfa_offset 16
	.cfi_offset %rbp, -16
	movq	%rsp, %rbp
	.cfi_def_cfa_register %rbp
	movq	%rdi, -8(%rbp)
	movq	-8(%rbp), %rdi
	movl	array1_size(%rip), %eax
	movl	%eax, %ecx
	cmpq	%rcx, %rdi
	jae	.LBB0_2
# %bb.1:
	lfence
	movq	-8(%rbp), %rax
	leaq	array1(%rip), %rcx
	movzbl	(%rcx,%rax), %edx
	shll	$9, %edx
	movslq	%edx, %rax
	leaq	array2(%rip), %rcx
	movzbl	(%rcx,%rax), %edx
	movzbl	temp(%rip), %esi
	andl	%edx, %esi
	movb	%sil, %dil
	movb	%dil, temp(%rip)
.LBB0_2:
	lfence
	popq	%rbp
	.cfi_def_cfa %rsp, 8
	retq
.Lfunc_end0:
	.size	victim_function_v19, .Lfunc_end0-victim_function_v19
	.cfi_endproc
                                        # -- End function
	.globl	main                    # -- Begin function main
	.p2align	4, 0x90
	.type	main,@function
main:                                   # @main
	.cfi_startproc
# %bb.0:
	pushq	%rbp
	.cfi_def_cfa_offset 16
	.cfi_offset %rbp, -16
	movq	%rsp, %rbp
	.cfi_def_cfa_register %rbp
	subq	$16, %rsp
	xorl	%eax, %eax
	movl	%eax, %edi
	movl	$0, -4(%rbp)
	callq	victim_function_v19
	movl	$42, %edi
	callq	victim_function_v19
	xorl	%eax, %eax
	addq	$16, %rsp
	popq	%rbp
	.cfi_def_cfa %rsp, 8
	retq
.Lfunc_end1:
	.size	main, .Lfunc_end1-main
	.cfi_endproc
                                        # -- End function
	.type	array1_size,@object     # @array1_size
	.data
	.globl	array1_size
	.p2align	2
array1_size:
	.long	16                      # 0x10
	.size	array1_size, 4

	.type	array1,@object          # @array1
	.globl	array1
	.p2align	4
array1:
	.ascii	"\001\002\003\004\005\006\007\b\t\n\013\f\r\016\017\020"
	.size	array1, 16

	.type	temp,@object            # @temp
	.bss
	.globl	temp
temp:
	.byte	0                       # 0x0
	.size	temp, 1

	.type	array2,@object          # @array2
	.comm	array2,131072,16

	.ident	"clang version 8.0.0 (tags/RELEASE_800/final)"
	.section	".note.GNU-stack","",@progbits
	.addrsig
	.addrsig_sym victim_function_v19
	.addrsig_sym array1_size
	.addrsig_sym array1
	.addrsig_sym temp
	.addrsig_sym array2
